; Function Attrs: nounwind uwtable
define ptr @zend_fetch_resource_ex(ptr noundef readonly %0, ptr noundef %1, i32 noundef %2) local_unnamed_addr #0 {
  %4 = alloca ptr, align 8
  %5 = alloca ptr, align 8
  %6 = icmp eq ptr %0, null
  br i1 %6, label %7, label %12

7:                                                ; preds = %3
  %.not15 = icmp eq ptr %1, null
  br i1 %.not15, label %33, label %8

8:                                                ; preds = %7
  %9 = call ptr @get_active_class_name(ptr noundef nonnull %5) #14
  %10 = load ptr, ptr %5, align 8
  %11 = call ptr @get_active_function_name() #14
  call void (ptr, ...) @zend_type_error(ptr noundef nonnull @.str.2, ptr noundef %9, ptr noundef %10, ptr noundef %11, ptr noundef nonnull %1) #14
  br label %33

12:                                               ; preds = %3
  %13 = getelementptr inbounds i8, ptr %0, i64 8
  %14 = load i8, ptr %13, align 8
  %.not = icmp eq i8 %14, 9
  br i1 %.not, label %20, label %15

15:                                               ; preds = %12
  %.not14 = icmp eq ptr %1, null
  br i1 %.not14, label %33, label %16

16:                                               ; preds = %15
  %17 = call ptr @get_active_class_name(ptr noundef nonnull %5) #14
  %18 = load ptr, ptr %5, align 8
  %19 = call ptr @get_active_function_name() #14
  call void (ptr, ...) @zend_type_error(ptr noundef nonnull @.str.3, ptr noundef %17, ptr noundef %18, ptr noundef %19, ptr noundef nonnull %1) #14
  br label %33

20:                                               ; preds = %12
  %21 = load ptr, ptr %0, align 8
  call void @llvm.lifetime.start.p0(i64 8, ptr nonnull %4)
  %22 = getelementptr inbounds i8, ptr %21, i64 16
  %23 = load i32, ptr %22, align 8
  %24 = icmp eq i32 %23, %2
  br i1 %24, label %25, label %28

25:                                               ; preds = %20
  %26 = getelementptr inbounds i8, ptr %21, i64 24
  %27 = load ptr, ptr %26, align 8
  br label %zend_fetch_resource.exit

28:                                               ; preds = %20
  %.not.i = icmp eq ptr %1, null
  br i1 %.not.i, label %zend_fetch_resource.exit, label %29

29:                                               ; preds = %28
  %30 = call ptr @get_active_class_name(ptr noundef nonnull %4) #14
  %31 = load ptr, ptr %4, align 8
  %32 = call ptr @get_active_function_name() #14
  call void (ptr, ...) @zend_type_error(ptr noundef nonnull @.str.1, ptr noundef %30, ptr noundef %31, ptr noundef %32, ptr noundef nonnull %1) #14
  br label %zend_fetch_resource.exit

zend_fetch_resource.exit:                         ; preds = %25, %28, %29
  %.0.i = phi ptr [ %27, %25 ], [ null, %29 ], [ null, %28 ]
  call void @llvm.lifetime.end.p0(i64 8, ptr nonnull %4)
  br label %33

33:                                               ; preds = %15, %16, %7, %8, %zend_fetch_resource.exit
  %.0 = phi ptr [ %.0.i, %zend_fetch_resource.exit ], [ null, %8 ], [ null, %7 ], [ null, %16 ], [ null, %15 ]
  ret ptr %.0
}